target datalayout = "e-m:e-p270:32:32-p271:32:32-p272:64:64-i64:64-i128:128-f80:128-n8:16:32:64-S128"
target triple = "x86_64-pc-linux-gnu"

%struct.archive_read = type { %struct.archive, ptr, i32, i64, i64, %struct.archive_read_client, [16 x %struct.archive_read_filter_bidder], ptr, i32, i64, i32, i32, [16 x %struct.archive_format_descriptor], ptr, ptr, ptr, %struct.anon }
%struct.archive = type { i32, i32, ptr, i32, ptr, i32, i32, ptr, %struct.archive_string, ptr, i32, i32, ptr, ptr, i64, i64, i64, i8, i64 }
%struct.archive_string = type { ptr, i64, i64 }
%struct.archive_read_client = type { ptr, ptr, ptr, ptr, ptr, ptr, i32, i32, i64, ptr }
%struct.archive_read_filter_bidder = type { ptr, ptr, ptr }
%struct.archive_format_descriptor = type { ptr, ptr, ptr, ptr, ptr, ptr, ptr, ptr, ptr, ptr, ptr }
%struct.anon = type { ptr, ptr, i32, ptr, ptr }

@.str.14 = private unnamed_addr constant [29 x i8] c"archive_read_header_position\00", align 1

; Function Attrs: nounwind uwtable
define dso_local i64 @archive_read_header_position(ptr noundef %0) #0 {
  %2 = alloca i64, align 8
  %3 = alloca ptr, align 8
  %4 = alloca ptr, align 8
  %5 = alloca i32, align 4
  %6 = alloca i32, align 4
  store ptr %0, ptr %3, align 8, !tbaa !31
  call void @llvm.lifetime.start.p0(i64 8, ptr %4) #11
  %7 = load ptr, ptr %3, align 8, !tbaa !31
  store ptr %7, ptr %4, align 8, !tbaa !4
  br label %8

8:                                                ; preds = %1
  call void @llvm.lifetime.start.p0(i64 4, ptr %5) #11
  %9 = load ptr, ptr %3, align 8, !tbaa !31
  %10 = call i32 @__archive_check_magic(ptr noundef %9, i32 noundef 14594245, i32 noundef 32767, ptr noundef @.str.14)
  store i32 %10, ptr %5, align 4, !tbaa !38
  %11 = load i32, ptr %5, align 4, !tbaa !38
  %12 = icmp eq i32 %11, -30
  br i1 %12, label %13, label %14

13:                                               ; preds = %8
  store i64 -30, ptr %2, align 8
  store i32 1, ptr %6, align 4
  br label %15

14:                                               ; preds = %8
  store i32 0, ptr %6, align 4
  br label %15

15:                                               ; preds = %14, %13
  call void @llvm.lifetime.end.p0(i64 4, ptr %5) #11
  %16 = load i32, ptr %6, align 4
  switch i32 %16, label %23 [
    i32 0, label %17
  ]

17:                                               ; preds = %15
  br label %18

18:                                               ; preds = %17
  br label %19

19:                                               ; preds = %18
  %20 = load ptr, ptr %4, align 8, !tbaa !4
  %21 = getelementptr inbounds nuw %struct.archive_read, ptr %20, i32 0, i32 9
  %22 = load i64, ptr %21, align 8, !tbaa !92
  store i64 %22, ptr %2, align 8
  store i32 1, ptr %6, align 4
  br label %23

23:                                               ; preds = %19, %15
  call void @llvm.lifetime.end.p0(i64 8, ptr %4) #11
  %24 = load i64, ptr %2, align 8
  ret i64 %24
}