; Function Attrs: nounwind uwtable
define dso_local i64 @archive_read_header_position(ptr noundef %0) local_unnamed_addr #0 {
  %2 = tail call i32 @__archive_check_magic(ptr noundef %0, i32 noundef 14594245, i32 noundef 32767, ptr noundef nonnull @.str.14) #15
  %.not = icmp eq i32 %2, -30
  br i1 %.not, label %6, label %3

3:                                                ; preds = %1
  %4 = getelementptr inbounds nuw i8, ptr %0, i64 648
  %5 = load i64, ptr %4, align 8, !tbaa !84
  br label %6

6:                                                ; preds = %1, %3
  %.1 = phi i64 [ %5, %3 ], [ -30, %1 ]
  ret i64 %.1
}